; Function Attrs: nounwind uwtable
define nonnull ptr @l_Lean_Meta_Match_MatchEqns_size___boxed(ptr noundef %0) local_unnamed_addr #1 {
  %2 = getelementptr inbounds nuw i8, ptr %0, i64 8
  %3 = load ptr, ptr %2, align 8, !tbaa !9
  %4 = getelementptr i8, ptr %3, i64 8
  %.val.i = load i64, ptr %4, align 8, !tbaa !12
  %5 = ptrtoint ptr %0 to i64
  %6 = and i64 %5, 1
  %.not = icmp eq i64 %6, 0
  br i1 %.not, label %7, label %lean_dec.exit

7:                                                ; preds = %1
  %8 = load i32, ptr %0, align 4, !tbaa !4
  %9 = icmp sgt i32 %8, 1
  br i1 %9, label %10, label %12, !prof !11

10:                                               ; preds = %7
  %11 = add nsw i32 %8, -1
  store i32 %11, ptr %0, align 4, !tbaa !4
  br label %lean_dec.exit

12:                                               ; preds = %7
  %.not.i = icmp eq i32 %8, 0
  br i1 %.not.i, label %lean_dec.exit, label %13

13:                                               ; preds = %12
  tail call void @lean_dec_ref_cold(ptr noundef nonnull %0) #6
  br label %lean_dec.exit

lean_dec.exit:                                    ; preds = %13, %12, %10, %1
  %14 = shl i64 %.val.i, 1
  %15 = or disjoint i64 %14, 1
  %16 = inttoptr i64 %15 to ptr
  ret ptr %16
}